target datalayout = "e-m:e-p270:32:32-p271:32:32-p272:64:64-i64:64-i128:128-f80:128-n8:16:32:64-S128"
target triple = "x86_64-pc-linux-gnu"

%struct.VP8BitReader = type { i64, i32, i32, ptr, ptr, ptr, i32 }

; Function Attrs: nounwind uwtable
define hidden void @VP8LoadFinalBytes(ptr noundef %0) #0 {
  %2 = alloca ptr, align 8
  store ptr %0, ptr %2, align 8
  %3 = load ptr, ptr %2, align 8
  %4 = getelementptr inbounds %struct.VP8BitReader, ptr %3, i32 0, i32 3
  %5 = load ptr, ptr %4, align 8
  %6 = load ptr, ptr %2, align 8
  %7 = getelementptr inbounds %struct.VP8BitReader, ptr %6, i32 0, i32 4
  %8 = load ptr, ptr %7, align 8
  %9 = icmp ult ptr %5, %8
  br i1 %9, label %10, label %28

10:                                               ; preds = %1
  %11 = load ptr, ptr %2, align 8
  %12 = getelementptr inbounds %struct.VP8BitReader, ptr %11, i32 0, i32 2
  %13 = load i32, ptr %12, align 4
  %14 = add nsw i32 %13, 8
  store i32 %14, ptr %12, align 4
  %15 = load ptr, ptr %2, align 8
  %16 = getelementptr inbounds %struct.VP8BitReader, ptr %15, i32 0, i32 3
  %17 = load ptr, ptr %16, align 8
  %18 = getelementptr inbounds i8, ptr %17, i32 1
  store ptr %18, ptr %16, align 8
  %19 = load i8, ptr %17, align 1
  %20 = zext i8 %19 to i64
  %21 = load ptr, ptr %2, align 8
  %22 = getelementptr inbounds %struct.VP8BitReader, ptr %21, i32 0, i32 0
  %23 = load i64, ptr %22, align 8
  %24 = shl i64 %23, 8
  %25 = or i64 %20, %24
  %26 = load ptr, ptr %2, align 8
  %27 = getelementptr inbounds %struct.VP8BitReader, ptr %26, i32 0, i32 0
  store i64 %25, ptr %27, align 8
  br label %48

28:                                               ; preds = %1
  %29 = load ptr, ptr %2, align 8
  %30 = getelementptr inbounds %struct.VP8BitReader, ptr %29, i32 0, i32 6
  %31 = load i32, ptr %30, align 8
  %32 = icmp ne i32 %31, 0
  br i1 %32, label %44, label %33

33:                                               ; preds = %28
  %34 = load ptr, ptr %2, align 8
  %35 = getelementptr inbounds %struct.VP8BitReader, ptr %34, i32 0, i32 0
  %36 = load i64, ptr %35, align 8
  %37 = shl i64 %36, 8
  store i64 %37, ptr %35, align 8
  %38 = load ptr, ptr %2, align 8
  %39 = getelementptr inbounds %struct.VP8BitReader, ptr %38, i32 0, i32 2
  %40 = load i32, ptr %39, align 4
  %41 = add nsw i32 %40, 8
  store i32 %41, ptr %39, align 4
  %42 = load ptr, ptr %2, align 8
  %43 = getelementptr inbounds %struct.VP8BitReader, ptr %42, i32 0, i32 6
  store i32 1, ptr %43, align 8
  br label %47

44:                                               ; preds = %28
  %45 = load ptr, ptr %2, align 8
  %46 = getelementptr inbounds %struct.VP8BitReader, ptr %45, i32 0, i32 2
  store i32 0, ptr %46, align 4
  br label %47

47:                                               ; preds = %44, %33
  br label %48

48:                                               ; preds = %47, %10
  ret void
}

; Function Attrs: nounwind uwtable
define internal i64 @BSwap64(i64 noundef %0) #0 {
  %2 = alloca i64, align 8
  store i64 %0, ptr %2, align 8
  %3 = load i64, ptr %2, align 8
  %4 = call i64 @llvm.bswap.i64(i64 %3)
  ret i64 %4
}

; Function Attrs: nounwind uwtable
define internal void @VP8LoadNewBytes(ptr noalias noundef %0) #0 {
  %2 = alloca ptr, align 8
  %3 = alloca i64, align 8
  %4 = alloca i64, align 8
  store ptr %0, ptr %2, align 8
  %5 = load ptr, ptr %2, align 8
  %6 = getelementptr inbounds %struct.VP8BitReader, ptr %5, i32 0, i32 3
  %7 = load ptr, ptr %6, align 8
  %8 = load ptr, ptr %2, align 8
  %9 = getelementptr inbounds %struct.VP8BitReader, ptr %8, i32 0, i32 5
  %10 = load ptr, ptr %9, align 8
  %11 = icmp ult ptr %7, %10
  br i1 %11, label %12, label %36

12:                                               ; preds = %1
  %13 = load ptr, ptr %2, align 8
  %14 = getelementptr inbounds %struct.VP8BitReader, ptr %13, i32 0, i32 3
  %15 = load ptr, ptr %14, align 8
  call void @llvm.memcpy.p0.p0.i64(ptr align 8 %4, ptr align 1 %15, i64 8, i1 false)
  %16 = load ptr, ptr %2, align 8
  %17 = getelementptr inbounds %struct.VP8BitReader, ptr %16, i32 0, i32 3
  %18 = load ptr, ptr %17, align 8
  %19 = getelementptr inbounds i8, ptr %18, i64 7
  store ptr %19, ptr %17, align 8
  %20 = load i64, ptr %4, align 8
  %21 = call i64 @BSwap64(i64 noundef %20)
  store i64 %21, ptr %3, align 8
  %22 = load i64, ptr %3, align 8
  %23 = lshr i64 %22, 8
  store i64 %23, ptr %3, align 8
  %24 = load i64, ptr %3, align 8
  %25 = load ptr, ptr %2, align 8
  %26 = getelementptr inbounds %struct.VP8BitReader, ptr %25, i32 0, i32 0
  %27 = load i64, ptr %26, align 8
  %28 = shl i64 %27, 56
  %29 = or i64 %24, %28
  %30 = load ptr, ptr %2, align 8
  %31 = getelementptr inbounds %struct.VP8BitReader, ptr %30, i32 0, i32 0
  store i64 %29, ptr %31, align 8
  %32 = load ptr, ptr %2, align 8
  %33 = getelementptr inbounds %struct.VP8BitReader, ptr %32, i32 0, i32 2
  %34 = load i32, ptr %33, align 4
  %35 = add nsw i32 %34, 56
  store i32 %35, ptr %33, align 4
  br label %38

36:                                               ; preds = %1
  %37 = load ptr, ptr %2, align 8
  call void @VP8LoadFinalBytes(ptr noundef %37)
  br label %38

38:                                               ; preds = %36, %12
  ret void
}

; Function Attrs: nounwind uwtable
define hidden void @VP8BitReaderSetBuffer(ptr noundef %0, ptr noundef %1, i64 noundef %2) #0 {
  %4 = alloca ptr, align 8
  %5 = alloca ptr, align 8
  %6 = alloca i64, align 8
  store ptr %0, ptr %4, align 8
  store ptr %1, ptr %5, align 8
  store i64 %2, ptr %6, align 8
  %7 = load ptr, ptr %5, align 8
  %8 = load ptr, ptr %4, align 8
  %9 = getelementptr inbounds %struct.VP8BitReader, ptr %8, i32 0, i32 3
  store ptr %7, ptr %9, align 8
  %10 = load ptr, ptr %5, align 8
  %11 = load i64, ptr %6, align 8
  %12 = getelementptr inbounds i8, ptr %10, i64 %11
  %13 = load ptr, ptr %4, align 8
  %14 = getelementptr inbounds %struct.VP8BitReader, ptr %13, i32 0, i32 4
  store ptr %12, ptr %14, align 8
  %15 = load i64, ptr %6, align 8
  %16 = icmp uge i64 %15, 8
  br i1 %16, label %17, label %23

17:                                               ; preds = %3
  %18 = load ptr, ptr %5, align 8
  %19 = load i64, ptr %6, align 8
  %20 = getelementptr inbounds i8, ptr %18, i64 %19
  %21 = getelementptr inbounds i8, ptr %20, i64 -8
  %22 = getelementptr inbounds i8, ptr %21, i64 1
  br label %25

23:                                               ; preds = %3
  %24 = load ptr, ptr %5, align 8
  br label %25

25:                                               ; preds = %23, %17
  %26 = phi ptr [ %22, %17 ], [ %24, %23 ]
  %27 = load ptr, ptr %4, align 8
  %28 = getelementptr inbounds %struct.VP8BitReader, ptr %27, i32 0, i32 5
  store ptr %26, ptr %28, align 8
  ret void
}

; Function Attrs: nounwind uwtable
define hidden void @VP8InitBitReader(ptr noundef %0, ptr noundef %1, i64 noundef %2) #0 {
  %4 = alloca ptr, align 8
  %5 = alloca ptr, align 8
  %6 = alloca i64, align 8
  store ptr %0, ptr %4, align 8
  store ptr %1, ptr %5, align 8
  store i64 %2, ptr %6, align 8
  %7 = load ptr, ptr %4, align 8
  %8 = getelementptr inbounds %struct.VP8BitReader, ptr %7, i32 0, i32 1
  store i32 254, ptr %8, align 8
  %9 = load ptr, ptr %4, align 8
  %10 = getelementptr inbounds %struct.VP8BitReader, ptr %9, i32 0, i32 0
  store i64 0, ptr %10, align 8
  %11 = load ptr, ptr %4, align 8
  %12 = getelementptr inbounds %struct.VP8BitReader, ptr %11, i32 0, i32 2
  store i32 -8, ptr %12, align 4
  %13 = load ptr, ptr %4, align 8
  %14 = getelementptr inbounds %struct.VP8BitReader, ptr %13, i32 0, i32 6
  store i32 0, ptr %14, align 8
  %15 = load ptr, ptr %4, align 8
  %16 = load ptr, ptr %5, align 8
  %17 = load i64, ptr %6, align 8
  call void @VP8BitReaderSetBuffer(ptr noundef %15, ptr noundef %16, i64 noundef %17)
  %18 = load ptr, ptr %4, align 8
  call void @VP8LoadNewBytes(ptr noundef %18)
  ret void
}