; Function Attrs: mustprogress nofree norecurse nosync nounwind willreturn memory(argmem: readwrite, inaccessiblemem: readwrite) uwtable
define hidden void @VP8InitBitReader(ptr nocapture noundef writeonly %0, ptr noundef %1, i64 noundef %2) local_unnamed_addr #1 {
  %4 = getelementptr inbounds i8, ptr %0, i64 8
  store i32 254, ptr %4, align 8
  store i64 0, ptr %0, align 8
  %5 = getelementptr inbounds i8, ptr %0, i64 12
  store i32 -8, ptr %5, align 4
  %6 = getelementptr inbounds i8, ptr %0, i64 40
  store i32 0, ptr %6, align 8
  %7 = getelementptr inbounds i8, ptr %0, i64 16
  store ptr %1, ptr %7, align 8
  %8 = getelementptr inbounds i8, ptr %1, i64 %2
  %9 = getelementptr inbounds i8, ptr %0, i64 24
  store ptr %8, ptr %9, align 8
  %10 = icmp ugt i64 %2, 7
  %11 = getelementptr inbounds i8, ptr %8, i64 -7
  %12 = select i1 %10, ptr %11, ptr %1
  %13 = getelementptr inbounds i8, ptr %0, i64 32
  store ptr %12, ptr %13, align 8
  tail call void @llvm.experimental.noalias.scope.decl(metadata !4)
  %14 = icmp ugt ptr %12, %1
  br i1 %14, label %15, label %19

15:                                               ; preds = %3
  %.0.copyload.i = load i64, ptr %1, align 1, !noalias !4
  %16 = getelementptr inbounds i8, ptr %1, i64 7
  store ptr %16, ptr %7, align 8, !alias.scope !4
  %17 = tail call noundef i64 @llvm.bswap.i64(i64 %.0.copyload.i)
  %18 = lshr i64 %17, 8
  store i64 %18, ptr %0, align 8, !alias.scope !4
  store i32 48, ptr %5, align 4, !alias.scope !4
  br label %VP8LoadNewBytes.exit

19:                                               ; preds = %3
  %20 = icmp sgt i64 %2, 0
  store i32 0, ptr %5, align 4, !alias.scope !4
  br i1 %20, label %21, label %25

21:                                               ; preds = %19
  %22 = getelementptr inbounds i8, ptr %1, i64 1
  store ptr %22, ptr %7, align 8, !alias.scope !4
  %23 = load i8, ptr %1, align 1, !noalias !4
  %24 = zext i8 %23 to i64
  store i64 %24, ptr %0, align 8, !alias.scope !4
  br label %VP8LoadNewBytes.exit

25:                                               ; preds = %19
  store i32 1, ptr %6, align 8, !alias.scope !4
  br label %VP8LoadNewBytes.exit

VP8LoadNewBytes.exit:                             ; preds = %15, %21, %25
  ret void
}